target datalayout = "e-m:e-p270:32:32-p271:32:32-p272:64:64-i64:64-i128:128-f80:128-n8:16:32:64-S128"
target triple = "x86_64-pc-linux-gnu"

%struct.SDL_AtomicInt = type { i32 }
%struct.ALSA_pcm_cfg_ctx = type { ptr, ptr, ptr, i32, i32, i32, i32, i64, ptr, [8 x i32], [8 x i32], i32 }
%struct.SDL_AudioDevice = type { ptr, ptr, %struct.SDL_AtomicInt, ptr, ptr, ptr, ptr, ptr, ptr, ptr, i32, ptr, %struct.SDL_AudioSpec, i32, ptr, %struct.SDL_AudioSpec, i32, i32, %struct.SDL_AtomicInt, %struct.SDL_AtomicInt, i8, i8, ptr, ptr, ptr, i32, ptr, i8, ptr, ptr }
%struct.SDL_AudioSpec = type { i32, i32, i32 }
%struct.SDL_PrivateAudioData = type { ptr, ptr }
%struct.snd_pcm_chmap = type { i32, [0 x i32] }

@ALSA_snd_strerror = internal global ptr null, align 8
@ALSA_snd_pcm_set_chmap = internal global ptr null, align 8
@ALSA_snd_pcm_chmap_print = internal global ptr null, align 8
@.str.109 = private unnamed_addr constant [32 x i8] c"ALSA: channel map to install:%s\00", align 1
@.str.110 = private unnamed_addr constant [40 x i8] c"ALSA: failed to install channel map: %s\00", align 1

; Function Attrs: nounwind uwtable
define internal i32 @alsa_chmap_install(ptr noundef %0, ptr noundef %1) #0 {
  %3 = alloca i32, align 4
  %4 = alloca ptr, align 8
  %5 = alloca ptr, align 8
  %6 = alloca i8, align 1
  %7 = alloca ptr, align 8
  %8 = alloca i32, align 4
  %9 = alloca [128 x i8], align 16
  %10 = alloca i32, align 4
  store ptr %0, ptr %4, align 8
  store ptr %1, ptr %5, align 8
  call void @llvm.lifetime.start.p0(i64 1, ptr %6) #7
  call void @llvm.lifetime.start.p0(i64 8, ptr %7) #7
  %11 = load ptr, ptr %4, align 8
  %12 = getelementptr inbounds nuw %struct.ALSA_pcm_cfg_ctx, ptr %11, i32 0, i32 4
  %13 = load i32, ptr %12, align 4
  %14 = add i32 1, %13
  %15 = zext i32 %14 to i64
  %16 = mul i64 4, %15
  %17 = icmp ult i64 %16, 128
  %18 = zext i1 %17 to i8
  store i8 %18, ptr %6, align 1
  %19 = load i8, ptr %6, align 1, !range !3, !noundef !4
  %20 = trunc i8 %19 to i1
  br i1 %20, label %21, label %29

21:                                               ; preds = %2
  %22 = load ptr, ptr %4, align 8
  %23 = getelementptr inbounds nuw %struct.ALSA_pcm_cfg_ctx, ptr %22, i32 0, i32 4
  %24 = load i32, ptr %23, align 4
  %25 = add i32 1, %24
  %26 = zext i32 %25 to i64
  %27 = mul i64 4, %26
  %28 = alloca i8, i64 %27, align 16
  br label %37

29:                                               ; preds = %2
  %30 = load ptr, ptr %4, align 8
  %31 = getelementptr inbounds nuw %struct.ALSA_pcm_cfg_ctx, ptr %30, i32 0, i32 4
  %32 = load i32, ptr %31, align 4
  %33 = add i32 1, %32
  %34 = zext i32 %33 to i64
  %35 = mul i64 4, %34
  %36 = call noalias ptr @SDL_malloc_REAL(i64 noundef %35)
  br label %37

37:                                               ; preds = %29, %21
  %38 = phi ptr [ %28, %21 ], [ %36, %29 ]
  store ptr %38, ptr %7, align 8
  %39 = load ptr, ptr %7, align 8
  %40 = icmp ne ptr %39, null
  br i1 %40, label %42, label %41

41:                                               ; preds = %37
  store i32 -1, ptr %3, align 4
  store i32 1, ptr %8, align 4
  br label %96

42:                                               ; preds = %37
  %43 = load ptr, ptr %4, align 8
  %44 = getelementptr inbounds nuw %struct.ALSA_pcm_cfg_ctx, ptr %43, i32 0, i32 4
  %45 = load i32, ptr %44, align 4
  %46 = load ptr, ptr %7, align 8
  %47 = getelementptr inbounds nuw %struct.snd_pcm_chmap, ptr %46, i32 0, i32 0
  store i32 %45, ptr %47, align 4
  %48 = load ptr, ptr %7, align 8
  %49 = getelementptr inbounds nuw %struct.snd_pcm_chmap, ptr %48, i32 0, i32 1
  %50 = getelementptr inbounds [0 x i32], ptr %49, i64 0, i64 0
  %51 = load ptr, ptr %5, align 8
  %52 = load ptr, ptr %4, align 8
  %53 = getelementptr inbounds nuw %struct.ALSA_pcm_cfg_ctx, ptr %52, i32 0, i32 4
  %54 = load i32, ptr %53, align 4
  %55 = zext i32 %54 to i64
  %56 = mul i64 4, %55
  call void @llvm.memcpy.p0.p0.i64(ptr align 4 %50, ptr align 4 %51, i64 %56, i1 false)
  call void @llvm.lifetime.start.p0(i64 128, ptr %9) #7
  %57 = load ptr, ptr @ALSA_snd_pcm_chmap_print, align 8
  %58 = load ptr, ptr %7, align 8
  %59 = getelementptr inbounds [128 x i8], ptr %9, i64 0, i64 0
  %60 = call i32 %57(ptr noundef %58, i64 noundef 128, ptr noundef %59)
  %61 = getelementptr inbounds [128 x i8], ptr %9, i64 0, i64 0
  call void (i32, ptr, ...) @SDL_LogDebug_REAL(i32 noundef 4, ptr noundef @.str.109, ptr noundef %61)
  call void @llvm.lifetime.start.p0(i64 4, ptr %10) #7
  %62 = load ptr, ptr @ALSA_snd_pcm_set_chmap, align 8
  %63 = load ptr, ptr %4, align 8
  %64 = getelementptr inbounds nuw %struct.ALSA_pcm_cfg_ctx, ptr %63, i32 0, i32 0
  %65 = load ptr, ptr %64, align 8
  %66 = getelementptr inbounds nuw %struct.SDL_AudioDevice, ptr %65, i32 0, i32 28
  %67 = load ptr, ptr %66, align 8
  %68 = getelementptr inbounds nuw %struct.SDL_PrivateAudioData, ptr %67, i32 0, i32 0
  %69 = load ptr, ptr %68, align 8
  %70 = load ptr, ptr %7, align 8
  %71 = call i32 %62(ptr noundef %69, ptr noundef %70)
  store i32 %71, ptr %10, align 4
  %72 = load i32, ptr %10, align 4
  %73 = icmp slt i32 %72, 0
  br i1 %73, label %74, label %79

74:                                               ; preds = %42
  %75 = load ptr, ptr @ALSA_snd_strerror, align 8
  %76 = load i32, ptr %10, align 4
  %77 = call ptr %75(i32 noundef %76)
  %78 = call zeroext i1 (ptr, ...) @SDL_SetError_REAL(ptr noundef @.str.110, ptr noundef %77)
  store i32 -1, ptr %3, align 4
  store i32 1, ptr %8, align 4
  br label %95

79:                                               ; preds = %42
  %80 = load ptr, ptr %4, align 8
  %81 = getelementptr inbounds nuw %struct.ALSA_pcm_cfg_ctx, ptr %80, i32 0, i32 10
  %82 = getelementptr inbounds [8 x i32], ptr %81, i64 0, i64 0
  %83 = load ptr, ptr %5, align 8
  %84 = load ptr, ptr %4, align 8
  %85 = getelementptr inbounds nuw %struct.ALSA_pcm_cfg_ctx, ptr %84, i32 0, i32 4
  %86 = load i32, ptr %85, align 4
  %87 = zext i32 %86 to i64
  %88 = mul i64 %87, 4
  call void @llvm.memcpy.p0.p0.i64(ptr align 8 %82, ptr align 4 %83, i64 %88, i1 false)
  %89 = load i8, ptr %6, align 1, !range !3, !noundef !4
  %90 = trunc i8 %89 to i1
  br i1 %90, label %91, label %92

91:                                               ; preds = %79
  br label %94

92:                                               ; preds = %79
  %93 = load ptr, ptr %7, align 8
  call void @SDL_free_REAL(ptr noundef %93)
  br label %94

94:                                               ; preds = %92, %91
  store i32 0, ptr %3, align 4
  store i32 1, ptr %8, align 4
  br label %95

95:                                               ; preds = %94, %74
  call void @llvm.lifetime.end.p0(i64 4, ptr %10) #7
  call void @llvm.lifetime.end.p0(i64 128, ptr %9) #7
  br label %96

96:                                               ; preds = %95, %41
  call void @llvm.lifetime.end.p0(i64 8, ptr %7) #7
  call void @llvm.lifetime.end.p0(i64 1, ptr %6) #7
  %97 = load i32, ptr %3, align 4
  ret i32 %97
}