; Function Attrs: nounwind uwtable
define internal fastcc range(i32 -1, 1) i32 @alsa_chmap_install(ptr noundef nonnull captures(none) %0, ptr noundef readonly captures(none) %1) unnamed_addr #0 {
  %3 = alloca [128 x i8], align 16
  %4 = getelementptr inbounds nuw i8, ptr %0, i64 28
  %5 = load i32, ptr %4, align 4
  %6 = add i32 %5, 1
  %7 = zext i32 %6 to i64
  %8 = shl nuw nsw i64 %7, 2
  %9 = icmp ult i32 %6, 32
  br i1 %9, label %.thread, label %11

.thread:                                          ; preds = %2
  %10 = alloca i8, i64 %8, align 16
  br label %13

11:                                               ; preds = %2
  %12 = tail call noalias ptr @SDL_malloc_REAL(i64 noundef %8) #8
  %.not = icmp eq ptr %12, null
  br i1 %.not, label %39, label %._crit_edge

._crit_edge:                                      ; preds = %11
  %.pre = load i32, ptr %4, align 4
  br label %13

13:                                               ; preds = %._crit_edge, %.thread
  %14 = phi i32 [ %5, %.thread ], [ %.pre, %._crit_edge ]
  %15 = phi ptr [ %10, %.thread ], [ %12, %._crit_edge ]
  store i32 %14, ptr %15, align 4
  %16 = getelementptr inbounds nuw i8, ptr %15, i64 4
  %17 = zext i32 %14 to i64
  %18 = shl nuw nsw i64 %17, 2
  call void @llvm.memcpy.p0.p0.i64(ptr nonnull align 4 %16, ptr align 4 %1, i64 %18, i1 false)
  call void @llvm.lifetime.start.p0(i64 128, ptr nonnull %3) #8
  %19 = load ptr, ptr @ALSA_snd_pcm_chmap_print, align 8
  %20 = call i32 %19(ptr noundef nonnull %15, i64 noundef 128, ptr noundef nonnull %3) #8
  call void (i32, ptr, ...) @SDL_LogDebug_REAL(i32 noundef 4, ptr noundef nonnull @.str.109, ptr noundef nonnull %3) #8
  %21 = load ptr, ptr @ALSA_snd_pcm_set_chmap, align 8
  %22 = load ptr, ptr %0, align 8
  %23 = getelementptr inbounds nuw i8, ptr %22, i64 200
  %24 = load ptr, ptr %23, align 8
  %25 = load ptr, ptr %24, align 8
  %26 = call i32 %21(ptr noundef %25, ptr noundef nonnull %15) #8
  %27 = icmp slt i32 %26, 0
  br i1 %27, label %28, label %32

28:                                               ; preds = %13
  %29 = load ptr, ptr @ALSA_snd_strerror, align 8
  %30 = call ptr %29(i32 noundef %26) #8
  %31 = call zeroext i1 (ptr, ...) @SDL_SetError_REAL(ptr noundef nonnull @.str.110, ptr noundef %30) #8
  br label %38

32:                                               ; preds = %13
  %33 = getelementptr inbounds nuw i8, ptr %0, i64 88
  %34 = load i32, ptr %4, align 4
  %35 = zext i32 %34 to i64
  %36 = shl nuw nsw i64 %35, 2
  call void @llvm.memcpy.p0.p0.i64(ptr nonnull align 8 %33, ptr align 4 %1, i64 %36, i1 false)
  br i1 %9, label %38, label %37

37:                                               ; preds = %32
  call void @SDL_free_REAL(ptr noundef nonnull %15) #8
  br label %38

38:                                               ; preds = %37, %32, %28
  %.1 = phi i32 [ -1, %28 ], [ 0, %32 ], [ 0, %37 ]
  call void @llvm.lifetime.end.p0(i64 128, ptr nonnull %3) #8
  br label %39

39:                                               ; preds = %11, %38
  %.0 = phi i32 [ %.1, %38 ], [ -1, %11 ]
  ret i32 %.0
}